; Function Attrs: nounwind uwtable
define dso_local range(i32 -2147483647, -2147483648) i32 @PyCompile_OpcodeStackEffectWithJump(i32 noundef %0, i32 noundef %1, i32 noundef %2) local_unnamed_addr #0 {
  %4 = alloca %struct.stack_effects, align 4
  call void @llvm.lifetime.start.p0(i64 8, ptr nonnull %4) #8
  %5 = icmp slt i32 %0, 0
  br i1 %5, label %get_stack_effects.exit, label %6

6:                                                ; preds = %3
  %7 = icmp samesign ult i32 %0, 255
  br i1 %7, label %8, label %13

8:                                                ; preds = %6
  %9 = zext nneg i32 %0 to i64
  %10 = getelementptr [256 x i8], ptr @_PyOpcode_Deopt, i64 0, i64 %9
  %11 = load i8, ptr %10, align 1, !tbaa !55
  %12 = zext i8 %11 to i32
  %.not.i = icmp eq i32 %0, %12
  br i1 %.not.i, label %13, label %get_stack_effects.exit

13:                                               ; preds = %8, %6
  %14 = tail call i32 @_PyOpcode_num_popped(i32 noundef %0, i32 noundef %1) #8
  %15 = tail call i32 @_PyOpcode_num_pushed(i32 noundef %0, i32 noundef %1) #8
  %16 = icmp slt i32 %14, 0
  %17 = icmp slt i32 %15, 0
  %or.cond.i = select i1 %16, i1 true, i1 %17
  br i1 %or.cond.i, label %get_stack_effects.exit, label %18

18:                                               ; preds = %13
  %19 = add nsw i32 %0, -265
  %or.cond5.i = icmp ult i32 %19, -3
  %20 = icmp ne i32 %2, 0
  %or.cond7.i = or i1 %or.cond5.i, %20
  br i1 %or.cond7.i, label %21, label %get_stack_effects.exit

21:                                               ; preds = %18
  %22 = getelementptr inbounds nuw i8, ptr %4, i64 4
  %23 = call i32 @_PyOpcode_max_stack_effect(i32 noundef %0, i32 noundef %1, ptr noundef nonnull %22) #8
  %24 = icmp slt i32 %23, 0
  %25 = sub nsw i32 %15, %14
  %spec.select = select i1 %24, i32 2147483647, i32 %25
  br label %get_stack_effects.exit

get_stack_effects.exit:                           ; preds = %21, %18, %13, %8, %3
  %26 = phi i32 [ 2147483647, %3 ], [ 2147483647, %8 ], [ 2147483647, %13 ], [ 0, %18 ], [ %spec.select, %21 ]
  call void @llvm.lifetime.end.p0(i64 8, ptr nonnull %4) #8
  ret i32 %26
}